target datalayout = "e-m:e-p270:32:32-p271:32:32-p272:64:64-i64:64-i128:128-f80:128-n8:16:32:64-S128"
target triple = "x86_64-pc-linux-gnu"

%struct.MAT_PARAMS_S = type { i32, ptr, ptr, ptr }

; Function Attrs: nounwind uwtable
define dso_local zeroext i16 @core_bench_matrix(ptr noundef %0, i16 noundef signext %1, i16 noundef zeroext %2) #0 {
  %4 = alloca ptr, align 8
  %5 = alloca i16, align 2
  %6 = alloca i16, align 2
  %7 = alloca i32, align 4
  %8 = alloca ptr, align 8
  %9 = alloca ptr, align 8
  %10 = alloca ptr, align 8
  %11 = alloca i16, align 2
  store ptr %0, ptr %4, align 8, !tbaa !4
  store i16 %1, ptr %5, align 2, !tbaa !9
  store i16 %2, ptr %6, align 2, !tbaa !9
  call void @llvm.lifetime.start.p0(i64 4, ptr %7) #3
  %12 = load ptr, ptr %4, align 8, !tbaa !4
  %13 = getelementptr inbounds nuw %struct.MAT_PARAMS_S, ptr %12, i32 0, i32 0
  %14 = load i32, ptr %13, align 8, !tbaa !11
  store i32 %14, ptr %7, align 4, !tbaa !16
  call void @llvm.lifetime.start.p0(i64 8, ptr %8) #3
  %15 = load ptr, ptr %4, align 8, !tbaa !4
  %16 = getelementptr inbounds nuw %struct.MAT_PARAMS_S, ptr %15, i32 0, i32 3
  %17 = load ptr, ptr %16, align 8, !tbaa !17
  store ptr %17, ptr %8, align 8, !tbaa !18
  call void @llvm.lifetime.start.p0(i64 8, ptr %9) #3
  %18 = load ptr, ptr %4, align 8, !tbaa !4
  %19 = getelementptr inbounds nuw %struct.MAT_PARAMS_S, ptr %18, i32 0, i32 1
  %20 = load ptr, ptr %19, align 8, !tbaa !19
  store ptr %20, ptr %9, align 8, !tbaa !20
  call void @llvm.lifetime.start.p0(i64 8, ptr %10) #3
  %21 = load ptr, ptr %4, align 8, !tbaa !4
  %22 = getelementptr inbounds nuw %struct.MAT_PARAMS_S, ptr %21, i32 0, i32 2
  %23 = load ptr, ptr %22, align 8, !tbaa !21
  store ptr %23, ptr %10, align 8, !tbaa !20
  call void @llvm.lifetime.start.p0(i64 2, ptr %11) #3
  %24 = load i16, ptr %5, align 2, !tbaa !9
  store i16 %24, ptr %11, align 2, !tbaa !9
  %25 = load i32, ptr %7, align 4, !tbaa !16
  %26 = load ptr, ptr %8, align 8, !tbaa !18
  %27 = load ptr, ptr %9, align 8, !tbaa !20
  %28 = load ptr, ptr %10, align 8, !tbaa !20
  %29 = load i16, ptr %11, align 2, !tbaa !9
  %30 = call signext i16 @matrix_test(i32 noundef %25, ptr noundef %26, ptr noundef %27, ptr noundef %28, i16 noundef signext %29)
  %31 = load i16, ptr %6, align 2, !tbaa !9
  %32 = call zeroext i16 @crc16(i16 noundef signext %30, i16 noundef zeroext %31)
  store i16 %32, ptr %6, align 2, !tbaa !9
  %33 = load i16, ptr %6, align 2, !tbaa !9
  call void @llvm.lifetime.end.p0(i64 2, ptr %11) #3
  call void @llvm.lifetime.end.p0(i64 8, ptr %10) #3
  call void @llvm.lifetime.end.p0(i64 8, ptr %9) #3
  call void @llvm.lifetime.end.p0(i64 8, ptr %8) #3
  call void @llvm.lifetime.end.p0(i64 4, ptr %7) #3
  ret i16 %33
}