; Function Attrs: nounwind uwtable
define dso_local zeroext i16 @core_bench_matrix(ptr noundef readonly captures(none) %0, i16 noundef signext %1, i16 noundef zeroext %2) local_unnamed_addr #0 {
  %4 = load i32, ptr %0, align 8, !tbaa !4
  %5 = getelementptr inbounds nuw i8, ptr %0, i64 24
  %6 = load ptr, ptr %5, align 8, !tbaa !12
  %7 = getelementptr inbounds nuw i8, ptr %0, i64 8
  %8 = load ptr, ptr %7, align 8, !tbaa !13
  %9 = getelementptr inbounds nuw i8, ptr %0, i64 16
  %10 = load ptr, ptr %9, align 8, !tbaa !14
  %11 = tail call signext i16 @matrix_test(i32 noundef %4, ptr noundef %6, ptr noundef %8, ptr noundef %10, i16 noundef signext %1)
  %12 = tail call zeroext i16 @crc16(i16 noundef signext %11, i16 noundef zeroext %2) #6
  ret i16 %12
}